target datalayout = "e-m:e-p270:32:32-p271:32:32-p272:64:64-i64:64-i128:128-f80:128-n8:16:32:64-S128"
target triple = "x86_64-pc-linux-gnu"

%"class.grpc_core::NoDestruct.103" = type { [8 x i8] }
%"class.grpc_core::RefCounted" = type { %"class.grpc_core::PolymorphicRefCount", %"class.grpc_core::RefCount" }
%"class.grpc_core::PolymorphicRefCount" = type { ptr }
%"class.grpc_core::RefCount" = type { %"struct.std::atomic" }
%"struct.std::atomic" = type { %"struct.std::__atomic_base" }
%"struct.std::__atomic_base" = type { i64 }
%"class.grpc_core::RefCountedPtr" = type { ptr }
%"class.grpc_core::RefCountedPtr.33" = type { ptr }

@_ZN9grpc_core19NoDestructSingletonINS_11json_detail10AutoLoaderINS_13RefCountedPtrINS_37FileWatcherCertificateProviderFactory6ConfigEEEEEE6value_E = linkonce_odr global %"class.grpc_core::NoDestruct.103" zeroinitializer, comdat, align 8

; Function Attrs: mustprogress nounwind uwtable
define linkonce_odr noundef ptr @_ZN9grpc_core10NoDestructINS_11json_detail10AutoLoaderINS_13RefCountedPtrINS_37FileWatcherCertificateProviderFactory6ConfigEEEEEE3getEv(ptr noundef nonnull align 8 dereferenceable(8) %0) #4 comdat align 2 {
  %2 = alloca ptr, align 8
  store ptr %0, ptr %2, align 8, !tbaa !126
  %3 = load ptr, ptr %2, align 8
  %4 = getelementptr inbounds nuw %"class.grpc_core::NoDestruct.103", ptr %3, i32 0, i32 0
  ret ptr %4
}

; Function Attrs: alwaysinline mustprogress nounwind uwtable
define linkonce_odr noundef i64 @_ZNSt13__atomic_baseIlE9fetch_subElSt12memory_order(ptr noundef nonnull align 8 dereferenceable(8) %0, i64 noundef %1, i32 noundef %2) #10 comdat align 2 {
  %4 = alloca ptr, align 8
  %5 = alloca i64, align 8
  %6 = alloca i32, align 4
  %7 = alloca i64, align 8
  %8 = alloca i64, align 8
  store ptr %0, ptr %4, align 8, !tbaa !350
  store i64 %1, ptr %5, align 8, !tbaa !9
  store i32 %2, ptr %6, align 4, !tbaa !273
  %9 = load ptr, ptr %4, align 8
  %10 = getelementptr inbounds nuw %"struct.std::__atomic_base", ptr %9, i32 0, i32 0
  %11 = load i32, ptr %6, align 4, !tbaa !273
  %12 = load i64, ptr %5, align 8, !tbaa !9
  store i64 %12, ptr %7, align 8, !tbaa !9
  switch i32 %11, label %13 [
    i32 1, label %16
    i32 2, label %16
    i32 3, label %19
    i32 4, label %22
    i32 5, label %25
  ]

13:                                               ; preds = %3
  %14 = load i64, ptr %7, align 8
  %15 = atomicrmw sub ptr %10, i64 %14 monotonic, align 8
  store i64 %15, ptr %8, align 8
  br label %28

16:                                               ; preds = %3, %3
  %17 = load i64, ptr %7, align 8
  %18 = atomicrmw sub ptr %10, i64 %17 acquire, align 8
  store i64 %18, ptr %8, align 8
  br label %28

19:                                               ; preds = %3
  %20 = load i64, ptr %7, align 8
  %21 = atomicrmw sub ptr %10, i64 %20 release, align 8
  store i64 %21, ptr %8, align 8
  br label %28

22:                                               ; preds = %3
  %23 = load i64, ptr %7, align 8
  %24 = atomicrmw sub ptr %10, i64 %23 acq_rel, align 8
  store i64 %24, ptr %8, align 8
  br label %28

25:                                               ; preds = %3
  %26 = load i64, ptr %7, align 8
  %27 = atomicrmw sub ptr %10, i64 %26 seq_cst, align 8
  store i64 %27, ptr %8, align 8
  br label %28

28:                                               ; preds = %25, %22, %19, %16, %13
  %29 = load i64, ptr %8, align 8, !tbaa !9
  ret i64 %29
}

; Function Attrs: mustprogress uwtable
define linkonce_odr noundef nonnull align 8 dereferenceable(8) ptr @_ZN9grpc_core10NoDestructINS_11json_detail10AutoLoaderINS_13RefCountedPtrINS_37FileWatcherCertificateProviderFactory6ConfigEEEEEEdeEv(ptr noundef nonnull align 8 dereferenceable(8) %0) #6 comdat align 2 {
  %2 = alloca ptr, align 8
  store ptr %0, ptr %2, align 8, !tbaa !126
  %3 = load ptr, ptr %2, align 8
  %4 = call noundef ptr @_ZN9grpc_core10NoDestructINS_11json_detail10AutoLoaderINS_13RefCountedPtrINS_37FileWatcherCertificateProviderFactory6ConfigEEEEEE3getEv(ptr noundef nonnull align 8 dereferenceable(8) %3)
  ret ptr %4
}

; Function Attrs: mustprogress nounwind uwtable
define linkonce_odr void @_ZNK9grpc_core11UnrefDeleteclIKNS_26CertificateProviderFactory6ConfigEEEvPT_(ptr noundef nonnull align 1 dereferenceable(1) %0, ptr noundef %1) #4 comdat align 2 {
  %3 = alloca ptr, align 8
  %4 = alloca ptr, align 8
  store ptr %0, ptr %3, align 8, !tbaa !358
  store ptr %1, ptr %4, align 8, !tbaa !94
  %5 = load ptr, ptr %4, align 8, !tbaa !94
  %6 = icmp eq ptr %5, null
  br i1 %6, label %11, label %7

7:                                                ; preds = %2
  %8 = load ptr, ptr %5, align 8, !tbaa !72
  %9 = getelementptr inbounds ptr, ptr %8, i64 1
  %10 = load ptr, ptr %9, align 8
  call void %10(ptr noundef nonnull align 8 dereferenceable(16) %5) #3
  br label %11

11:                                               ; preds = %7, %2
  ret void
}

; Function Attrs: mustprogress nounwind uwtable
define linkonce_odr noundef zeroext i1 @_ZN9grpc_core8RefCount5UnrefEv(ptr noundef nonnull align 8 dereferenceable(8) %0) #4 comdat align 2 {
  %2 = alloca ptr, align 8
  %3 = alloca i64, align 8
  store ptr %0, ptr %2, align 8, !tbaa !346
  %4 = load ptr, ptr %2, align 8
  call void @llvm.lifetime.start.p0(i64 8, ptr %3) #3
  %5 = getelementptr inbounds nuw %"class.grpc_core::RefCount", ptr %4, i32 0, i32 0
  %6 = call noundef i64 @_ZNSt13__atomic_baseIlE9fetch_subElSt12memory_order(ptr noundef nonnull align 8 dereferenceable(8) %5, i64 noundef 1, i32 noundef 4) #3
  store i64 %6, ptr %3, align 8, !tbaa !9
  %7 = load i64, ptr %3, align 8, !tbaa !9
  %8 = icmp eq i64 %7, 1
  call void @llvm.lifetime.end.p0(i64 8, ptr %3) #3
  ret i1 %8
}

; Function Attrs: mustprogress uwtable
define linkonce_odr noundef ptr @_ZN9grpc_core19NoDestructSingletonINS_11json_detail10AutoLoaderINS_13RefCountedPtrINS_37FileWatcherCertificateProviderFactory6ConfigEEEEEE3GetEv() #6 comdat align 2 {
  %1 = call noundef nonnull align 8 dereferenceable(8) ptr @_ZN9grpc_core10NoDestructINS_11json_detail10AutoLoaderINS_13RefCountedPtrINS_37FileWatcherCertificateProviderFactory6ConfigEEEEEEdeEv(ptr noundef nonnull align 8 dereferenceable(8) @_ZN9grpc_core19NoDestructSingletonINS_11json_detail10AutoLoaderINS_13RefCountedPtrINS_37FileWatcherCertificateProviderFactory6ConfigEEEEEE6value_E)
  ret ptr %1
}

; Function Attrs: noinline noreturn nounwind uwtable
define linkonce_odr hidden void @__clang_call_terminate(ptr noundef %0) #14 comdat {
  %2 = call ptr @__cxa_begin_catch(ptr %0) #3
  call void @_ZSt9terminatev() #22
  unreachable
}

; Function Attrs: mustprogress uwtable
define linkonce_odr void @_ZNK9grpc_core10RefCountedINS_26CertificateProviderFactory6ConfigENS_19PolymorphicRefCountENS_11UnrefDeleteEE5UnrefEv(ptr noundef nonnull align 8 dereferenceable(16) %0) #6 comdat align 2 {
  %2 = alloca ptr, align 8
  store ptr %0, ptr %2, align 8, !tbaa !342
  %3 = load ptr, ptr %2, align 8
  %4 = getelementptr inbounds nuw %"class.grpc_core::RefCounted", ptr %3, i32 0, i32 1
  %5 = call noundef zeroext i1 @_ZN9grpc_core8RefCount5UnrefEv(ptr noundef nonnull align 8 dereferenceable(8) %4)
  %6 = zext i1 %5 to i64
  %7 = call i64 @llvm.expect.i64(i64 %6, i64 0)
  %8 = icmp ne i64 %7, 0
  br i1 %8, label %9, label %10

9:                                                ; preds = %1
  call void @_ZNK9grpc_core11UnrefDeleteclIKNS_26CertificateProviderFactory6ConfigEEEvPT_(ptr noundef nonnull align 1 dereferenceable(1) %3, ptr noundef %3)
  br label %10

10:                                               ; preds = %9, %1
  ret void
}

; Function Attrs: mustprogress uwtable
define linkonce_odr noundef ptr @_ZN9grpc_core11json_detail13LoaderForTypeINS_13RefCountedPtrINS_37FileWatcherCertificateProviderFactory6ConfigEEEEEPKNS0_15LoaderInterfaceEv() #6 comdat {
  %1 = call noundef ptr @_ZN9grpc_core19NoDestructSingletonINS_11json_detail10AutoLoaderINS_13RefCountedPtrINS_37FileWatcherCertificateProviderFactory6ConfigEEEEEE3GetEv()
  ret ptr %1
}

; Function Attrs: mustprogress nounwind uwtable
define linkonce_odr void @_ZN9grpc_core13RefCountedPtrINS_37FileWatcherCertificateProviderFactory6ConfigEEC2Ev(ptr noundef nonnull align 8 dereferenceable(8) %0) unnamed_addr #4 comdat align 2 {
  %2 = alloca ptr, align 8
  store ptr %0, ptr %2, align 8, !tbaa !76
  %3 = load ptr, ptr %2, align 8
  %4 = getelementptr inbounds nuw %"class.grpc_core::RefCountedPtr.33", ptr %3, i32 0, i32 0
  store ptr null, ptr %4, align 8, !tbaa !81
  ret void
}

; Function Attrs: mustprogress nounwind uwtable
define linkonce_odr void @_ZN9grpc_core13RefCountedPtrINS_37FileWatcherCertificateProviderFactory6ConfigEED2Ev(ptr noundef nonnull align 8 dereferenceable(8) %0) unnamed_addr #4 comdat align 2 personality ptr @__gxx_personality_v0 {
  %2 = alloca ptr, align 8
  store ptr %0, ptr %2, align 8, !tbaa !76
  %3 = load ptr, ptr %2, align 8
  %4 = getelementptr inbounds nuw %"class.grpc_core::RefCountedPtr.33", ptr %3, i32 0, i32 0
  %5 = load ptr, ptr %4, align 8, !tbaa !81
  %6 = icmp ne ptr %5, null
  br i1 %6, label %7, label %11

7:                                                ; preds = %1
  %8 = getelementptr inbounds nuw %"class.grpc_core::RefCountedPtr.33", ptr %3, i32 0, i32 0
  %9 = load ptr, ptr %8, align 8, !tbaa !81
  invoke void @_ZNK9grpc_core10RefCountedINS_26CertificateProviderFactory6ConfigENS_19PolymorphicRefCountENS_11UnrefDeleteEE5UnrefEv(ptr noundef nonnull align 8 dereferenceable(16) %9)
          to label %10 unwind label %12

10:                                               ; preds = %7
  br label %11

11:                                               ; preds = %10, %1
  ret void

12:                                               ; preds = %7
  %13 = landingpad { ptr, i32 }
          catch ptr null
  %14 = extractvalue { ptr, i32 } %13, 0
  call void @__clang_call_terminate(ptr %14) #22
  unreachable
}

; Function Attrs: mustprogress nounwind uwtable
define linkonce_odr void @_ZN9grpc_core13RefCountedPtrINS_26CertificateProviderFactory6ConfigEEC2INS_37FileWatcherCertificateProviderFactory6ConfigETnNSt9enable_ifIXsr3std14is_convertibleIPT_PS2_EE5valueEbE4typeELb1EEEONS0_IS8_EE(ptr noundef nonnull align 8 dereferenceable(8) %0, ptr noundef nonnull align 8 dereferenceable(8) %1) unnamed_addr #4 comdat align 2 {
  %3 = alloca ptr, align 8
  %4 = alloca ptr, align 8
  store ptr %0, ptr %3, align 8, !tbaa !74
  store ptr %1, ptr %4, align 8, !tbaa !76
  %5 = load ptr, ptr %3, align 8
  %6 = getelementptr inbounds nuw %"class.grpc_core::RefCountedPtr", ptr %5, i32 0, i32 0
  store ptr null, ptr %6, align 8, !tbaa !78
  %7 = load ptr, ptr %4, align 8, !tbaa !76
  %8 = getelementptr inbounds nuw %"class.grpc_core::RefCountedPtr.33", ptr %7, i32 0, i32 0
  %9 = load ptr, ptr %8, align 8, !tbaa !81
  %10 = getelementptr inbounds nuw %"class.grpc_core::RefCountedPtr", ptr %5, i32 0, i32 0
  store ptr %9, ptr %10, align 8, !tbaa !78
  %11 = load ptr, ptr %4, align 8, !tbaa !76
  %12 = getelementptr inbounds nuw %"class.grpc_core::RefCountedPtr.33", ptr %11, i32 0, i32 0
  store ptr null, ptr %12, align 8, !tbaa !81
  ret void
}

; Function Attrs: mustprogress uwtable
define linkonce_odr void @_ZN9grpc_core12LoadFromJsonINS_13RefCountedPtrINS_37FileWatcherCertificateProviderFactory6ConfigEEEEET_RKNS_12experimental4JsonERKNS_8JsonArgsEPNS_16ValidationErrorsE(ptr dead_on_unwind noalias writable sret(%"class.grpc_core::RefCountedPtr.33") align 8 %0, ptr noundef nonnull align 8 dereferenceable(56) %1, ptr noundef nonnull align 8 dereferenceable(8) %2, ptr noundef %3) #6 comdat personality ptr @__gxx_personality_v0 {
  %5 = alloca ptr, align 8
  %6 = alloca ptr, align 8
  %7 = alloca ptr, align 8
  %8 = alloca ptr, align 8
  %9 = alloca i1, align 1
  %10 = alloca ptr, align 8
  %11 = alloca i32, align 4
  store ptr %0, ptr %5, align 8
  store ptr %1, ptr %6, align 8, !tbaa !59
  store ptr %2, ptr %7, align 8, !tbaa !43
  store ptr %3, ptr %8, align 8, !tbaa !61
  store i1 false, ptr %9, align 1
  call void @_ZN9grpc_core13RefCountedPtrINS_37FileWatcherCertificateProviderFactory6ConfigEEC2Ev(ptr noundef nonnull align 8 dereferenceable(8) %0)
  %12 = invoke noundef ptr @_ZN9grpc_core11json_detail13LoaderForTypeINS_13RefCountedPtrINS_37FileWatcherCertificateProviderFactory6ConfigEEEEEPKNS0_15LoaderInterfaceEv()
          to label %13 unwind label %22

13:                                               ; preds = %4
  %14 = load ptr, ptr %6, align 8, !tbaa !59
  %15 = load ptr, ptr %7, align 8, !tbaa !43
  %16 = load ptr, ptr %8, align 8, !tbaa !61
  %17 = load ptr, ptr %12, align 8, !tbaa !72
  %18 = getelementptr inbounds ptr, ptr %17, i64 0
  %19 = load ptr, ptr %18, align 8
  invoke void %19(ptr noundef nonnull align 8 dereferenceable(8) %12, ptr noundef nonnull align 8 dereferenceable(56) %14, ptr noundef nonnull align 8 dereferenceable(8) %15, ptr noundef %0, ptr noundef %16)
          to label %20 unwind label %22

20:                                               ; preds = %13
  store i1 true, ptr %9, align 1
  %21 = load i1, ptr %9, align 1
  br i1 %21, label %27, label %26

22:                                               ; preds = %13, %4
  %23 = landingpad { ptr, i32 }
          cleanup
  %24 = extractvalue { ptr, i32 } %23, 0
  store ptr %24, ptr %10, align 8
  %25 = extractvalue { ptr, i32 } %23, 1
  store i32 %25, ptr %11, align 4
  call void @_ZN9grpc_core13RefCountedPtrINS_37FileWatcherCertificateProviderFactory6ConfigEED2Ev(ptr noundef nonnull align 8 dereferenceable(8) %0) #3
  br label %28

26:                                               ; preds = %20
  call void @_ZN9grpc_core13RefCountedPtrINS_37FileWatcherCertificateProviderFactory6ConfigEED2Ev(ptr noundef nonnull align 8 dereferenceable(8) %0) #3
  br label %27

27:                                               ; preds = %26, %20
  ret void

28:                                               ; preds = %22
  %29 = load ptr, ptr %10, align 8
  %30 = load i32, ptr %11, align 4
  %31 = insertvalue { ptr, i32 } poison, ptr %29, 0
  %32 = insertvalue { ptr, i32 } %31, i32 %30, 1
  resume { ptr, i32 } %32
}

; Function Attrs: mustprogress uwtable
define void @_ZN9grpc_core37FileWatcherCertificateProviderFactory31CreateCertificateProviderConfigERKNS_12experimental4JsonERKNS_8JsonArgsEPNS_16ValidationErrorsE(ptr dead_on_unwind noalias writable sret(%"class.grpc_core::RefCountedPtr") align 8 %0, ptr noundef nonnull align 8 dereferenceable(8) %1, ptr noundef nonnull align 8 dereferenceable(56) %2, ptr noundef nonnull align 8 dereferenceable(8) %3, ptr noundef %4) unnamed_addr #6 align 2 {
  %6 = alloca ptr, align 8
  %7 = alloca ptr, align 8
  %8 = alloca ptr, align 8
  %9 = alloca ptr, align 8
  %10 = alloca ptr, align 8
  %11 = alloca %"class.grpc_core::RefCountedPtr.33", align 8
  store ptr %0, ptr %6, align 8
  store ptr %1, ptr %7, align 8, !tbaa !70
  store ptr %2, ptr %8, align 8, !tbaa !59
  store ptr %3, ptr %9, align 8, !tbaa !43
  store ptr %4, ptr %10, align 8, !tbaa !61
  call void @llvm.lifetime.start.p0(i64 8, ptr %11) #3
  %12 = load ptr, ptr %8, align 8, !tbaa !59
  %13 = load ptr, ptr %9, align 8, !tbaa !43
  %14 = load ptr, ptr %10, align 8, !tbaa !61
  call void @_ZN9grpc_core12LoadFromJsonINS_13RefCountedPtrINS_37FileWatcherCertificateProviderFactory6ConfigEEEEET_RKNS_12experimental4JsonERKNS_8JsonArgsEPNS_16ValidationErrorsE(ptr dead_on_unwind writable sret(%"class.grpc_core::RefCountedPtr.33") align 8 %11, ptr noundef nonnull align 8 dereferenceable(56) %12, ptr noundef nonnull align 8 dereferenceable(8) %13, ptr noundef %14)
  call void @_ZN9grpc_core13RefCountedPtrINS_26CertificateProviderFactory6ConfigEEC2INS_37FileWatcherCertificateProviderFactory6ConfigETnNSt9enable_ifIXsr3std14is_convertibleIPT_PS2_EE5valueEbE4typeELb1EEEONS0_IS8_EE(ptr noundef nonnull align 8 dereferenceable(8) %0, ptr noundef nonnull align 8 dereferenceable(8) %11) #3
  call void @_ZN9grpc_core13RefCountedPtrINS_37FileWatcherCertificateProviderFactory6ConfigEED2Ev(ptr noundef nonnull align 8 dereferenceable(8) %11) #3
  call void @llvm.lifetime.end.p0(i64 8, ptr %11) #3
  ret void
}