; Function Attrs: mustprogress uwtable
define void @_ZN9grpc_core37FileWatcherCertificateProviderFactory31CreateCertificateProviderConfigERKNS_12experimental4JsonERKNS_8JsonArgsEPNS_16ValidationErrorsE(ptr dead_on_unwind noalias writable writeonly sret(%"class.grpc_core::RefCountedPtr") align 8 captures(none) %0, ptr nonnull readnone align 8 captures(none) %1, ptr noundef nonnull align 8 dereferenceable(56) %2, ptr noundef nonnull align 8 dereferenceable(8) %3, ptr noundef %4) unnamed_addr #5 align 2 personality ptr @__gxx_personality_v0 {
  %6 = alloca %"class.grpc_core::RefCountedPtr.33", align 8
  call void @llvm.lifetime.start.p0(i64 8, ptr nonnull %6) #25
  tail call void @llvm.experimental.noalias.scope.decl(metadata !74)
  store ptr null, ptr %6, align 8, !tbaa !77, !alias.scope !74
  %7 = load ptr, ptr @_ZN9grpc_core19NoDestructSingletonINS_11json_detail10AutoLoaderINS_13RefCountedPtrINS_37FileWatcherCertificateProviderFactory6ConfigEEEEEE6value_E, align 8, !tbaa !56, !noalias !74
  %8 = load ptr, ptr %7, align 8, !noalias !74
  invoke void %8(ptr noundef nonnull align 8 dereferenceable(8) @_ZN9grpc_core19NoDestructSingletonINS_11json_detail10AutoLoaderINS_13RefCountedPtrINS_37FileWatcherCertificateProviderFactory6ConfigEEEEEE6value_E, ptr noundef nonnull align 8 dereferenceable(56) %2, ptr noundef nonnull align 8 dereferenceable(8) %3, ptr noundef nonnull align 8 %6, ptr noundef %4)
          to label %_ZN9grpc_core13RefCountedPtrINS_37FileWatcherCertificateProviderFactory6ConfigEED2Ev.exit unwind label %9

9:                                                ; preds = %5
  %10 = landingpad { ptr, i32 }
          cleanup
  %11 = load ptr, ptr %6, align 8, !tbaa !77, !alias.scope !74
  %.not.i.i = icmp eq ptr %11, null
  br i1 %.not.i.i, label %_ZN9grpc_core13RefCountedPtrINS_37FileWatcherCertificateProviderFactory6ConfigEED2Ev.exit.i, label %12

12:                                               ; preds = %9
  %13 = getelementptr inbounds nuw i8, ptr %11, i64 8
  %14 = atomicrmw sub ptr %13, i64 1 acq_rel, align 8
  %15 = icmp eq i64 %14, 1
  br i1 %15, label %16, label %_ZN9grpc_core13RefCountedPtrINS_37FileWatcherCertificateProviderFactory6ConfigEED2Ev.exit.i, !prof !80

16:                                               ; preds = %12
  %17 = load ptr, ptr %11, align 8, !tbaa !56
  %18 = getelementptr inbounds nuw i8, ptr %17, i64 8
  %19 = load ptr, ptr %18, align 8
  call void %19(ptr noundef nonnull align 8 dereferenceable(16) %11) #25
  br label %_ZN9grpc_core13RefCountedPtrINS_37FileWatcherCertificateProviderFactory6ConfigEED2Ev.exit.i

_ZN9grpc_core13RefCountedPtrINS_37FileWatcherCertificateProviderFactory6ConfigEED2Ev.exit.i: ; preds = %16, %12, %9
  resume { ptr, i32 } %10

_ZN9grpc_core13RefCountedPtrINS_37FileWatcherCertificateProviderFactory6ConfigEED2Ev.exit: ; preds = %5
  %20 = load ptr, ptr %6, align 8, !tbaa !77
  store ptr %20, ptr %0, align 8, !tbaa !81
  call void @llvm.lifetime.end.p0(i64 8, ptr nonnull %6) #25
  ret void
}